; ModuleID = 'bench/openjdk/original/formatBuffer.ll'
source_filename = "bench/openjdk/original/formatBuffer.ll"
target datalayout = "e-m:e-p270:32:32-p271:32:32-p272:64:64-i64:64-i128:128-f80:128-n8:16:32:64-S128"
target triple = "x86_64-pc-linux-gnu"

%struct.__va_list_tag = type { i32, i32, ptr, ptr }

@llvm.global_ctors = appending global [0 x { i32, ptr, ptr }] zeroinitializer

@_ZN20FormatBufferResourceC1EPKcz = hidden unnamed_addr alias void (ptr, ptr, ...), ptr @_ZN20FormatBufferResourceC2EPKcz

; Function Attrs: mustprogress nounwind uwtable
define hidden void @_ZN20FormatBufferResourceC2EPKcz(ptr nocapture noundef nonnull align 8 dereferenceable(8) %0, ptr noundef %1, ...) unnamed_addr #0 align 2 {
  %3 = alloca [1 x %struct.__va_list_tag], align 16
  %4 = tail call noundef ptr @_Z23resource_allocate_bytesmN17AllocFailStrategy13AllocFailEnumE(i64 noundef 256, i32 noundef 0) #3
  store ptr %4, ptr %0, align 8
  call void @llvm.va_start.p0(ptr nonnull %3)
  %5 = load ptr, ptr %0, align 8
  %6 = call i32 @jio_vsnprintf(ptr noundef %5, i64 noundef 256, ptr noundef %1, ptr noundef nonnull %3) #3
  call void @llvm.va_end.p0(ptr nonnull %3)
  ret void
}

declare noundef ptr @_Z23resource_allocate_bytesmN17AllocFailStrategy13AllocFailEnumE(i64 noundef, i32 noundef) local_unnamed_addr #1

; Function Attrs: mustprogress nocallback nofree nosync nounwind willreturn
declare void @llvm.va_start.p0(ptr) #2

declare i32 @jio_vsnprintf(ptr noundef, i64 noundef, ptr noundef, ptr noundef) local_unnamed_addr #1

; Function Attrs: mustprogress nocallback nofree nosync nounwind willreturn
declare void @llvm.va_end.p0(ptr) #2


!llvm.module.flags = !{!0, !1, !2, !3, !4, !5}

!0 = !{i32 7, !"Dwarf Version", i32 5}
!1 = !{i32 2, !"Debug Info Version", i32 3}
!2 = !{i32 1, !"wchar_size", i32 4}
!3 = !{i32 8, !"PIC Level", i32 2}
!4 = !{i32 7, !"uwtable", i32 2}
!5 = !{i32 7, !"frame-pointer", i32 2}
